target datalayout = "e-m:e-p270:32:32-p271:32:32-p272:64:64-i64:64-i128:128-f80:128-n8:16:32:64-S128"
target triple = "x86_64-pc-linux-gnu"

%"class.Imf_3_4::ImageChannel" = type { ptr, ptr, i32, i32, i8, i32, i32, i64 }
%"class.Imath_3_2::Box" = type { %"class.Imath_3_2::Vec2", %"class.Imath_3_2::Vec2" }
%"class.Imath_3_2::Vec2" = type { i32, i32 }
%"class.Imf_3_4::ImageLevel" = type { ptr, ptr, i32, i32, %"class.Imath_3_2::Box" }

@.str = private unnamed_addr constant [152 x i8] c"The minimum x and y coordinates of the data window of an image level must be multiples of the x and y subsampling factors of all channels in the image.\00", align 1
@_ZTIN7Iex_3_46ArgExcE = external constant ptr
@.str.1 = private unnamed_addr constant [141 x i8] c"The width and height of the data window of an image level must be multiples of the x and y subsampling factors of all channels in the image.\00", align 1

; Function Attrs: mustprogress nounwind uwtable
define linkonce_odr hidden noundef nonnull align 4 dereferenceable(16) ptr @_ZNK7Imf_3_410ImageLevel10dataWindowEv(ptr noundef nonnull align 8 dereferenceable(40) %0) #4 comdat align 2 {
  %2 = alloca ptr, align 8
  store ptr %0, ptr %2, align 8, !tbaa !8
  %3 = load ptr, ptr %2, align 8
  %4 = getelementptr inbounds nuw %"class.Imf_3_4::ImageLevel", ptr %3, i32 0, i32 4
  ret ptr %4
}

; Function Attrs: mustprogress nounwind uwtable
define linkonce_odr hidden noundef nonnull align 8 dereferenceable(40) ptr @_ZN7Imf_3_412ImageChannel5levelEv(ptr noundef nonnull align 8 dereferenceable(48) %0) #4 comdat align 2 {
  %2 = alloca ptr, align 8
  store ptr %0, ptr %2, align 8, !tbaa !3
  %3 = load ptr, ptr %2, align 8
  %4 = getelementptr inbounds nuw %"class.Imf_3_4::ImageChannel", ptr %3, i32 0, i32 1
  %5 = load ptr, ptr %4, align 8, !tbaa !34
  ret ptr %5
}

; Function Attrs: mustprogress uwtable
define void @_ZN7Imf_3_412ImageChannel6resizeEv(ptr noundef nonnull align 8 dereferenceable(48) %0) unnamed_addr #6 align 2 personality ptr @__gxx_personality_v0 {
  %2 = alloca ptr, align 8
  %3 = alloca ptr, align 8
  %4 = alloca ptr, align 8
  %5 = alloca i32, align 4
  %6 = alloca i32, align 4
  %7 = alloca i32, align 4
  store ptr %0, ptr %2, align 8, !tbaa !3
  %8 = load ptr, ptr %2, align 8
  call void @llvm.lifetime.start.p0(i64 8, ptr %3) #3
  %9 = call noundef nonnull align 8 dereferenceable(40) ptr @_ZN7Imf_3_412ImageChannel5levelEv(ptr noundef nonnull align 8 dereferenceable(48) %8)
  %10 = call noundef nonnull align 4 dereferenceable(16) ptr @_ZNK7Imf_3_410ImageLevel10dataWindowEv(ptr noundef nonnull align 8 dereferenceable(40) %9)
  store ptr %10, ptr %3, align 8, !tbaa !26
  %11 = load ptr, ptr %3, align 8, !tbaa !26
  %12 = getelementptr inbounds nuw %"class.Imath_3_2::Box", ptr %11, i32 0, i32 0
  %13 = getelementptr inbounds nuw %"class.Imath_3_2::Vec2", ptr %12, i32 0, i32 0
  %14 = load i32, ptr %13, align 4, !tbaa !28
  %15 = getelementptr inbounds nuw %"class.Imf_3_4::ImageChannel", ptr %8, i32 0, i32 2
  %16 = load i32, ptr %15, align 8, !tbaa !16
  %17 = srem i32 %14, %16
  %18 = icmp ne i32 %17, 0
  br i1 %18, label %28, label %19

19:                                               ; preds = %1
  %20 = load ptr, ptr %3, align 8, !tbaa !26
  %21 = getelementptr inbounds nuw %"class.Imath_3_2::Box", ptr %20, i32 0, i32 0
  %22 = getelementptr inbounds nuw %"class.Imath_3_2::Vec2", ptr %21, i32 0, i32 1
  %23 = load i32, ptr %22, align 4, !tbaa !31
  %24 = getelementptr inbounds nuw %"class.Imf_3_4::ImageChannel", ptr %8, i32 0, i32 3
  %25 = load i32, ptr %24, align 4, !tbaa !19
  %26 = srem i32 %23, %25
  %27 = icmp ne i32 %26, 0
  br i1 %27, label %28, label %35

28:                                               ; preds = %19, %1
  %29 = call ptr @__cxa_allocate_exception(i64 72) #3
  invoke void @_ZN7Iex_3_46ArgExcC1EPKc(ptr noundef nonnull align 8 dereferenceable(72) %29, ptr noundef @.str)
          to label %30 unwind label %31

30:                                               ; preds = %28
  call void @__cxa_throw(ptr %29, ptr @_ZTIN7Iex_3_46ArgExcE, ptr @_ZN7Iex_3_46ArgExcD1Ev) #14
  unreachable

31:                                               ; preds = %28
  %32 = landingpad { ptr, i32 }
          cleanup
  %33 = extractvalue { ptr, i32 } %32, 0
  store ptr %33, ptr %4, align 8
  %34 = extractvalue { ptr, i32 } %32, 1
  store i32 %34, ptr %5, align 4
  call void @__cxa_free_exception(ptr %29) #3
  br label %92

35:                                               ; preds = %19
  call void @llvm.lifetime.start.p0(i64 4, ptr %6) #3
  %36 = load ptr, ptr %3, align 8, !tbaa !26
  %37 = getelementptr inbounds nuw %"class.Imath_3_2::Box", ptr %36, i32 0, i32 1
  %38 = getelementptr inbounds nuw %"class.Imath_3_2::Vec2", ptr %37, i32 0, i32 0
  %39 = load i32, ptr %38, align 4, !tbaa !32
  %40 = load ptr, ptr %3, align 8, !tbaa !26
  %41 = getelementptr inbounds nuw %"class.Imath_3_2::Box", ptr %40, i32 0, i32 0
  %42 = getelementptr inbounds nuw %"class.Imath_3_2::Vec2", ptr %41, i32 0, i32 0
  %43 = load i32, ptr %42, align 4, !tbaa !28
  %44 = sub nsw i32 %39, %43
  %45 = add nsw i32 %44, 1
  store i32 %45, ptr %6, align 4, !tbaa !10
  call void @llvm.lifetime.start.p0(i64 4, ptr %7) #3
  %46 = load ptr, ptr %3, align 8, !tbaa !26
  %47 = getelementptr inbounds nuw %"class.Imath_3_2::Box", ptr %46, i32 0, i32 1
  %48 = getelementptr inbounds nuw %"class.Imath_3_2::Vec2", ptr %47, i32 0, i32 1
  %49 = load i32, ptr %48, align 4, !tbaa !33
  %50 = load ptr, ptr %3, align 8, !tbaa !26
  %51 = getelementptr inbounds nuw %"class.Imath_3_2::Box", ptr %50, i32 0, i32 0
  %52 = getelementptr inbounds nuw %"class.Imath_3_2::Vec2", ptr %51, i32 0, i32 1
  %53 = load i32, ptr %52, align 4, !tbaa !31
  %54 = sub nsw i32 %49, %53
  %55 = add nsw i32 %54, 1
  store i32 %55, ptr %7, align 4, !tbaa !10
  %56 = load i32, ptr %6, align 4, !tbaa !10
  %57 = getelementptr inbounds nuw %"class.Imf_3_4::ImageChannel", ptr %8, i32 0, i32 2
  %58 = load i32, ptr %57, align 8, !tbaa !16
  %59 = srem i32 %56, %58
  %60 = icmp ne i32 %59, 0
  br i1 %60, label %67, label %61

61:                                               ; preds = %35
  %62 = load i32, ptr %7, align 4, !tbaa !10
  %63 = getelementptr inbounds nuw %"class.Imf_3_4::ImageChannel", ptr %8, i32 0, i32 3
  %64 = load i32, ptr %63, align 4, !tbaa !19
  %65 = srem i32 %62, %64
  %66 = icmp ne i32 %65, 0
  br i1 %66, label %67, label %74

67:                                               ; preds = %61, %35
  %68 = call ptr @__cxa_allocate_exception(i64 72) #3
  invoke void @_ZN7Iex_3_46ArgExcC1EPKc(ptr noundef nonnull align 8 dereferenceable(72) %68, ptr noundef @.str.1)
          to label %69 unwind label %70

69:                                               ; preds = %67
  call void @__cxa_throw(ptr %68, ptr @_ZTIN7Iex_3_46ArgExcE, ptr @_ZN7Iex_3_46ArgExcD1Ev) #14
  unreachable

70:                                               ; preds = %67
  %71 = landingpad { ptr, i32 }
          cleanup
  %72 = extractvalue { ptr, i32 } %71, 0
  store ptr %72, ptr %4, align 8
  %73 = extractvalue { ptr, i32 } %71, 1
  store i32 %73, ptr %5, align 4
  call void @__cxa_free_exception(ptr %68) #3
  call void @llvm.lifetime.end.p0(i64 4, ptr %7) #3
  call void @llvm.lifetime.end.p0(i64 4, ptr %6) #3
  br label %92

74:                                               ; preds = %61
  %75 = load i32, ptr %6, align 4, !tbaa !10
  %76 = getelementptr inbounds nuw %"class.Imf_3_4::ImageChannel", ptr %8, i32 0, i32 2
  %77 = load i32, ptr %76, align 8, !tbaa !16
  %78 = sdiv i32 %75, %77
  %79 = getelementptr inbounds nuw %"class.Imf_3_4::ImageChannel", ptr %8, i32 0, i32 5
  store i32 %78, ptr %79, align 4, !tbaa !23
  %80 = load i32, ptr %7, align 4, !tbaa !10
  %81 = getelementptr inbounds nuw %"class.Imf_3_4::ImageChannel", ptr %8, i32 0, i32 3
  %82 = load i32, ptr %81, align 4, !tbaa !19
  %83 = sdiv i32 %80, %82
  %84 = getelementptr inbounds nuw %"class.Imf_3_4::ImageChannel", ptr %8, i32 0, i32 6
  store i32 %83, ptr %84, align 8, !tbaa !24
  %85 = getelementptr inbounds nuw %"class.Imf_3_4::ImageChannel", ptr %8, i32 0, i32 5
  %86 = load i32, ptr %85, align 4, !tbaa !23
  %87 = getelementptr inbounds nuw %"class.Imf_3_4::ImageChannel", ptr %8, i32 0, i32 6
  %88 = load i32, ptr %87, align 8, !tbaa !24
  %89 = mul nsw i32 %86, %88
  %90 = sext i32 %89 to i64
  %91 = getelementptr inbounds nuw %"class.Imf_3_4::ImageChannel", ptr %8, i32 0, i32 7
  store i64 %90, ptr %91, align 8, !tbaa !25
  call void @llvm.lifetime.end.p0(i64 4, ptr %7) #3
  call void @llvm.lifetime.end.p0(i64 4, ptr %6) #3
  call void @llvm.lifetime.end.p0(i64 8, ptr %3) #3
  ret void

92:                                               ; preds = %70, %31
  call void @llvm.lifetime.end.p0(i64 8, ptr %3) #3
  br label %93

93:                                               ; preds = %92
  %94 = load ptr, ptr %4, align 8
  %95 = load i32, ptr %5, align 4
  %96 = insertvalue { ptr, i32 } poison, ptr %94, 0
  %97 = insertvalue { ptr, i32 } %96, i32 %95, 1
  resume { ptr, i32 } %97
}