; Function Attrs: mustprogress uwtable
define void @_ZN7Imf_3_412ImageChannel6resizeEv(ptr noundef nonnull align 8 captures(none) dereferenceable(48) %0) unnamed_addr #7 align 2 personality ptr @__gxx_personality_v0 {
  %2 = getelementptr inbounds nuw i8, ptr %0, i64 8
  %3 = load ptr, ptr %2, align 8, !tbaa !22
  %4 = getelementptr inbounds nuw i8, ptr %3, i64 24
  %5 = load i32, ptr %4, align 4, !tbaa !23
  %6 = getelementptr inbounds nuw i8, ptr %0, i64 16
  %7 = load i32, ptr %6, align 8, !tbaa !10
  %8 = srem i32 %5, %7
  %.not = icmp eq i32 %8, 0
  br i1 %.not, label %9, label %15

9:                                                ; preds = %1
  %10 = getelementptr inbounds nuw i8, ptr %3, i64 28
  %11 = load i32, ptr %10, align 4, !tbaa !26
  %12 = getelementptr inbounds nuw i8, ptr %0, i64 20
  %13 = load i32, ptr %12, align 4, !tbaa !15
  %14 = srem i32 %11, %13
  %.not13 = icmp eq i32 %14, 0
  br i1 %.not13, label %20, label %15

15:                                               ; preds = %9, %1
  %16 = tail call ptr @__cxa_allocate_exception(i64 72) #13
  invoke void @_ZN7Iex_3_46ArgExcC1EPKc(ptr noundef nonnull align 8 dereferenceable(72) %16, ptr noundef nonnull @.str)
          to label %17 unwind label %18

17:                                               ; preds = %15
  tail call void @__cxa_throw(ptr nonnull %16, ptr nonnull @_ZTIN7Iex_3_46ArgExcE, ptr nonnull @_ZN7Iex_3_46ArgExcD1Ev) #14
  unreachable

18:                                               ; preds = %15
  %19 = landingpad { ptr, i32 }
          cleanup
  br label %45

20:                                               ; preds = %9
  %21 = getelementptr inbounds nuw i8, ptr %3, i64 32
  %22 = load i32, ptr %21, align 4, !tbaa !27
  %23 = sub nsw i32 %22, %5
  %24 = add nsw i32 %23, 1
  %25 = getelementptr inbounds nuw i8, ptr %3, i64 36
  %26 = load i32, ptr %25, align 4, !tbaa !28
  %27 = sub nsw i32 %26, %11
  %28 = add nsw i32 %27, 1
  %29 = srem i32 %24, %7
  %30 = sdiv i32 %24, %7
  %.not14 = icmp eq i32 %29, 0
  br i1 %.not14, label %31, label %34

31:                                               ; preds = %20
  %32 = srem i32 %28, %13
  %33 = sdiv i32 %28, %13
  %.not15 = icmp eq i32 %32, 0
  br i1 %.not15, label %39, label %34

34:                                               ; preds = %31, %20
  %35 = tail call ptr @__cxa_allocate_exception(i64 72) #13
  invoke void @_ZN7Iex_3_46ArgExcC1EPKc(ptr noundef nonnull align 8 dereferenceable(72) %35, ptr noundef nonnull @.str.1)
          to label %36 unwind label %37

36:                                               ; preds = %34
  tail call void @__cxa_throw(ptr nonnull %35, ptr nonnull @_ZTIN7Iex_3_46ArgExcE, ptr nonnull @_ZN7Iex_3_46ArgExcD1Ev) #14
  unreachable

37:                                               ; preds = %34
  %38 = landingpad { ptr, i32 }
          cleanup
  br label %45

39:                                               ; preds = %31
  %40 = getelementptr inbounds nuw i8, ptr %0, i64 28
  store i32 %30, ptr %40, align 4, !tbaa !17
  %41 = getelementptr inbounds nuw i8, ptr %0, i64 32
  store i32 %33, ptr %41, align 8, !tbaa !18
  %42 = mul nsw i32 %33, %30
  %43 = sext i32 %42 to i64
  %44 = getelementptr inbounds nuw i8, ptr %0, i64 40
  store i64 %43, ptr %44, align 8, !tbaa !19
  ret void

45:                                               ; preds = %37, %18
  %.sink = phi ptr [ %35, %37 ], [ %16, %18 ]
  %.pn = phi { ptr, i32 } [ %38, %37 ], [ %19, %18 ]
  tail call void @__cxa_free_exception(ptr nonnull %.sink) #13
  resume { ptr, i32 } %.pn
}